; Function Attrs: mustprogress nounwind uwtable
define internal fastcc void @_ZN12_GLOBAL__N_117RegisterCoalescer12shrinkToUsesEPN4llvm12LiveIntervalEPNS1_15SmallVectorImplIPNS1_12MachineInstrEEE(ptr nocapture noundef nonnull readonly align 8 dereferenceable(960) %0, ptr noundef %1, ptr noundef %2) unnamed_addr #0 align 2 {
  %4 = alloca %"class.llvm::SmallVector.462", align 8
  %5 = getelementptr inbounds nuw i8, ptr %0, i64 96
  %6 = load ptr, ptr %5, align 8
  %7 = tail call noundef zeroext i1 @_ZN4llvm13LiveIntervals12shrinkToUsesEPNS_12LiveIntervalEPNS_15SmallVectorImplIPNS_12MachineInstrEEE(ptr noundef nonnull align 8 dereferenceable(440) %6, ptr noundef %1, ptr noundef %2) #20
  br i1 %7, label %8, label %_ZN4llvm11SmallVectorIPNS_12LiveIntervalELj8EED2Ev.exit

8:                                                ; preds = %3
  %9 = getelementptr inbounds i8, ptr %4, i64 16
  call void @_ZN4llvm15SmallVectorBaseIjEC2EPvm(ptr noundef nonnull align 8 dereferenceable(16) %4, ptr noundef nonnull %9, i64 noundef 8) #20
  %10 = load ptr, ptr %5, align 8
  call void @_ZN4llvm13LiveIntervals23splitSeparateComponentsERNS_12LiveIntervalERNS_15SmallVectorImplIPS1_EE(ptr noundef nonnull align 8 dereferenceable(440) %10, ptr noundef nonnull align 8 dereferenceable(120) %1, ptr noundef nonnull align 8 dereferenceable(16) %4) #20
  %11 = call noundef i64 @_ZNK4llvm15SmallVectorBaseIjE4sizeEv(ptr noundef nonnull align 8 dereferenceable(16) %4) #20
  %12 = load ptr, ptr %4, align 8
  %13 = icmp eq ptr %12, %9
  br i1 %13, label %_ZN4llvm11SmallVectorIPNS_12LiveIntervalELj8EED2Ev.exit, label %14

14:                                               ; preds = %8
  call void @free(ptr noundef %12) #20
  br label %_ZN4llvm11SmallVectorIPNS_12LiveIntervalELj8EED2Ev.exit

_ZN4llvm11SmallVectorIPNS_12LiveIntervalELj8EED2Ev.exit: ; preds = %14, %8, %3
  ret void
}